target datalayout = "e-m:e-p270:32:32-p271:32:32-p272:64:64-i64:64-i128:128-f80:128-n8:16:32:64-S128"
target triple = "x86_64-pc-linux-gnu"

@stderr = external global ptr, align 8
@.str.2 = private unnamed_addr constant [68 x i8] c"Assertion %s failed (located in the %s function, line in file: %d)\0A\00", align 1
@.str.3 = private unnamed_addr constant [26 x i8] c"Detailed description: %s\0A\00", align 1

; Function Attrs: mustprogress sspstrong uwtable
define internal void @_ZN3tbb6detail2r1L22assertion_failure_implEPKciS3_S3_(ptr noundef %0, i32 noundef %1, ptr noundef %2, ptr noundef %3) #0 {
  %5 = alloca ptr, align 8
  %6 = alloca i32, align 4
  %7 = alloca ptr, align 8
  %8 = alloca ptr, align 8
  store ptr %0, ptr %5, align 8, !tbaa !3
  store i32 %1, ptr %6, align 4, !tbaa !8
  store ptr %2, ptr %7, align 8, !tbaa !3
  store ptr %3, ptr %8, align 8, !tbaa !3
  %9 = load ptr, ptr @stderr, align 8, !tbaa !22
  %10 = load ptr, ptr %7, align 8, !tbaa !3
  %11 = load ptr, ptr %5, align 8, !tbaa !3
  %12 = load i32, ptr %6, align 4, !tbaa !8
  %13 = call i32 (ptr, ptr, ...) @fprintf(ptr noundef %9, ptr noundef @.str.2, ptr noundef %10, ptr noundef %11, i32 noundef %12) #13
  %14 = load ptr, ptr %8, align 8, !tbaa !3
  %15 = icmp ne ptr %14, null
  br i1 %15, label %16, label %20

16:                                               ; preds = %4
  %17 = load ptr, ptr @stderr, align 8, !tbaa !22
  %18 = load ptr, ptr %8, align 8, !tbaa !3
  %19 = call i32 (ptr, ptr, ...) @fprintf(ptr noundef %17, ptr noundef @.str.3, ptr noundef %18) #13
  br label %20

20:                                               ; preds = %16, %4
  %21 = load ptr, ptr @stderr, align 8, !tbaa !22
  %22 = call i32 @fflush(ptr noundef %21)
  call void @abort() #14
  unreachable
}