; Function Attrs: cold mustprogress nofree noreturn nounwind sspstrong uwtable
define internal fastcc void @_ZN3tbb6detail2r1L22assertion_failure_implEPKciS3_S3_(ptr noundef %0, i32 noundef %1, ptr noundef %2, ptr noundef %3) unnamed_addr #13 {
  %5 = load ptr, ptr @stderr, align 8, !tbaa !19
  %6 = tail call i32 (ptr, ptr, ...) @fprintf(ptr noundef %5, ptr noundef nonnull @.str.2, ptr noundef %2, ptr noundef %0, i32 noundef %1) #18
  %.not = icmp eq ptr %3, null
  br i1 %.not, label %10, label %7

7:                                                ; preds = %4
  %8 = load ptr, ptr @stderr, align 8, !tbaa !19
  %9 = tail call i32 (ptr, ptr, ...) @fprintf(ptr noundef %8, ptr noundef nonnull @.str.3, ptr noundef nonnull %3) #18
  br label %10

10:                                               ; preds = %7, %4
  %11 = load ptr, ptr @stderr, align 8, !tbaa !19
  %12 = tail call i32 @fflush(ptr noundef %11)
  tail call void @abort() #17
  unreachable
}